; Function Attrs: mustprogress uwtable
define void @_Z9printBitsRSoN9Imath_3_24halfE(ptr noundef nonnull align 8 dereferenceable(8) %0, i16 %1) local_unnamed_addr #3 {
  %3 = alloca i8, align 1
  %4 = alloca i8, align 1
  %5 = zext i16 %1 to i32
  %invariant.gep = getelementptr i8, ptr %0, i64 16
  br label %7

6:                                                ; preds = %28
  ret void

7:                                                ; preds = %2, %28
  %.013 = phi i32 [ 15, %2 ], [ %29, %28 ]
  %8 = shl nuw i32 1, %.013
  %9 = and i32 %8, %5
  %.not = icmp eq i32 %9, 0
  %10 = select i1 %.not, i8 48, i8 49
  call void @llvm.lifetime.start.p0(i64 1, ptr nonnull %4)
  store i8 %10, ptr %4, align 1, !tbaa !8
  %11 = load ptr, ptr %0, align 8, !tbaa !14
  %12 = getelementptr i8, ptr %11, i64 -24
  %13 = load i64, ptr %12, align 8
  %gep = getelementptr i8, ptr %invariant.gep, i64 %13
  %14 = load i64, ptr %gep, align 8, !tbaa !16
  %.not.i = icmp eq i64 %14, 0
  br i1 %.not.i, label %17, label %15

15:                                               ; preds = %7
  %16 = call noundef nonnull align 8 dereferenceable(8) ptr @_ZSt16__ostream_insertIcSt11char_traitsIcEERSt13basic_ostreamIT_T0_ES6_PKS3_l(ptr noundef nonnull align 8 dereferenceable(8) %0, ptr noundef nonnull %4, i64 noundef 1)
  br label %_ZStlsISt11char_traitsIcEERSt13basic_ostreamIcT_ES5_c.exit

17:                                               ; preds = %7
  %18 = call noundef nonnull align 8 dereferenceable(8) ptr @_ZNSo3putEc(ptr noundef nonnull align 8 dereferenceable(8) %0, i8 noundef signext %10)
  br label %_ZStlsISt11char_traitsIcEERSt13basic_ostreamIcT_ES5_c.exit

_ZStlsISt11char_traitsIcEERSt13basic_ostreamIcT_ES5_c.exit: ; preds = %15, %17
  call void @llvm.lifetime.end.p0(i64 1, ptr nonnull %4)
  switch i32 %.013, label %28 [
    i32 15, label %19
    i32 10, label %19
  ]

19:                                               ; preds = %_ZStlsISt11char_traitsIcEERSt13basic_ostreamIcT_ES5_c.exit, %_ZStlsISt11char_traitsIcEERSt13basic_ostreamIcT_ES5_c.exit
  call void @llvm.lifetime.start.p0(i64 1, ptr nonnull %3)
  store i8 32, ptr %3, align 1, !tbaa !8
  %20 = load ptr, ptr %0, align 8, !tbaa !14
  %21 = getelementptr i8, ptr %20, i64 -24
  %22 = load i64, ptr %21, align 8
  %gep12 = getelementptr i8, ptr %invariant.gep, i64 %22
  %23 = load i64, ptr %gep12, align 8, !tbaa !16
  %.not.i8 = icmp eq i64 %23, 0
  br i1 %.not.i8, label %26, label %24

24:                                               ; preds = %19
  %25 = call noundef nonnull align 8 dereferenceable(8) ptr @_ZSt16__ostream_insertIcSt11char_traitsIcEERSt13basic_ostreamIT_T0_ES6_PKS3_l(ptr noundef nonnull align 8 dereferenceable(8) %0, ptr noundef nonnull %3, i64 noundef 1)
  br label %_ZStlsISt11char_traitsIcEERSt13basic_ostreamIcT_ES5_c.exit10

26:                                               ; preds = %19
  %27 = call noundef nonnull align 8 dereferenceable(8) ptr @_ZNSo3putEc(ptr noundef nonnull align 8 dereferenceable(8) %0, i8 noundef signext 32)
  br label %_ZStlsISt11char_traitsIcEERSt13basic_ostreamIcT_ES5_c.exit10

_ZStlsISt11char_traitsIcEERSt13basic_ostreamIcT_ES5_c.exit10: ; preds = %24, %26
  call void @llvm.lifetime.end.p0(i64 1, ptr nonnull %3)
  br label %28

28:                                               ; preds = %_ZStlsISt11char_traitsIcEERSt13basic_ostreamIcT_ES5_c.exit, %_ZStlsISt11char_traitsIcEERSt13basic_ostreamIcT_ES5_c.exit10
  %29 = add nsw i32 %.013, -1
  %.not14 = icmp eq i32 %.013, 0
  br i1 %.not14, label %6, label %7, !llvm.loop !27
}